librados.so.2 librados2 #MINVER#
 _ZN4ceph6buffer10claim_charEjPc@Base 0.87
 _ZN4ceph6buffer10error_codeC1Ei@Base 0.87
 _ZN4ceph6buffer10error_codeC2Ei@Base 0.87
 _ZN4ceph6buffer10error_codeD0Ev@Base 0.87
 _ZN4ceph6buffer10error_codeD1Ev@Base 0.87
 _ZN4ceph6buffer10error_codeD2Ev@Base 0.87
 _ZN4ceph6buffer11track_c_strEb@Base 0.87
 _ZN4ceph6buffer12claim_mallocEjPc@Base 0.87
 _ZN4ceph6buffer13create_mallocEj@Base 0.87
 _ZN4ceph6buffer13create_staticEjPc@Base 0.87
 _ZN4ceph6buffer13end_of_bufferD0Ev@Base 0.87
 _ZN4ceph6buffer13end_of_bufferD1Ev@Base 0.87
 _ZN4ceph6buffer13end_of_bufferD2Ev@Base 0.87
 _ZN4ceph6buffer14create_alignedEjj@Base 0.87
 _ZN4ceph6buffer14get_cached_crcEv@Base 0.87
 _ZN4ceph6buffer15dec_total_allocEj@Base 0.87
 _ZN4ceph6buffer15get_total_allocEv@Base 0.87
 _ZN4ceph6buffer15inc_total_allocEj@Base 0.87
 _ZN4ceph6buffer15malformed_inputD0Ev@Base 0.87
 _ZN4ceph6buffer15malformed_inputD1Ev@Base 0.87
 _ZN4ceph6buffer15malformed_inputD2Ev@Base 0.87
 _ZN4ceph6buffer16create_zero_copyEjiPx@Base 0.87
 _ZN4ceph6buffer16track_cached_crcEb@Base 0.87
 _ZN4ceph6buffer18create_unshareableEj@Base 0.87
 _ZN4ceph6buffer18get_c_str_accessesEv@Base 0.87
 _ZN4ceph6buffer19create_page_alignedEj@Base 0.87
 _ZN4ceph6buffer23get_cached_crc_adjustedEv@Base 0.87
 _ZN4ceph6buffer3ptr14make_shareableEv@Base 0.87
 _ZN4ceph6buffer3ptr4swapERS1_@Base 0.87
 _ZN4ceph6buffer3ptr4zeroEjj@Base 0.87
 _ZN4ceph6buffer3ptr4zeroEv@Base 0.87
 _ZN4ceph6buffer3ptr5c_strEv@Base 0.87
 _ZN4ceph6buffer3ptr5cloneEv@Base 0.87
 _ZN4ceph6buffer3ptr6appendEPKcj@Base 0.87
 _ZN4ceph6buffer3ptr6appendEc@Base 0.87
 _ZN4ceph6buffer3ptr6wastedEv@Base 0.87
 _ZN4ceph6buffer3ptr7copy_inEjjPKc@Base 0.87
 _ZN4ceph6buffer3ptr7releaseEv@Base 0.87
 _ZN4ceph6buffer3ptrC1EPKcj@Base 0.87
 _ZN4ceph6buffer3ptrC1EPNS0_3rawE@Base 0.87
 _ZN4ceph6buffer3ptrC1ERKS1_@Base 0.87
 _ZN4ceph6buffer3ptrC1ERKS1_jj@Base 0.87
 _ZN4ceph6buffer3ptrC1Ej@Base 0.87
 _ZN4ceph6buffer3ptrC2EPKcj@Base 0.87
 _ZN4ceph6buffer3ptrC2EPNS0_3rawE@Base 0.87
 _ZN4ceph6buffer3ptrC2ERKS1_@Base 0.87
 _ZN4ceph6buffer3ptrC2ERKS1_jj@Base 0.87
 _ZN4ceph6buffer3ptrC2Ej@Base 0.87
 _ZN4ceph6buffer3ptraSERKS1_@Base 0.87
 _ZN4ceph6buffer3ptrixEj@Base 0.87
 _ZN4ceph6buffer4copyEPKcj@Base 0.87
 _ZN4ceph6buffer4list10write_fileEPKci@Base 0.87
 _ZN4ceph6buffer4list11append_zeroEj@Base 0.87
 _ZN4ceph6buffer4list12claim_appendERS1_j@Base 0.87
 _ZN4ceph6buffer4list13claim_prependERS1_j@Base 0.87
 _ZN4ceph6buffer4list13decode_base64ERS1_@Base 0.87
 _ZN4ceph6buffer4list13encode_base64ERS1_@Base 0.87
 _ZN4ceph6buffer4list13is_contiguousEv@Base 0.87
 _ZN4ceph6buffer4list14contents_equalERS1_@Base 0.87
 _ZN4ceph6buffer4list14get_contiguousEjj@Base 0.87
 _ZN4ceph6buffer4list15rebuild_alignedEj@Base 0.87
 _ZN4ceph6buffer4list17read_fd_zero_copyEij@Base 0.87
 _ZN4ceph6buffer4list20rebuild_page_alignedEv@Base 0.87
 _ZN4ceph6buffer4list31rebuild_aligned_size_and_memoryEjj@Base 0.87
 _ZN4ceph6buffer4list4swapERS1_@Base 0.87
 _ZN4ceph6buffer4list4zeroEjj@Base 0.87
 _ZN4ceph6buffer4list4zeroEv@Base 0.87
 _ZN4ceph6buffer4list5c_strEv@Base 0.87
 _ZN4ceph6buffer4list5claimERS1_j@Base 0.87
 _ZN4ceph6buffer4list6appendEPKcj@Base 0.87
 _ZN4ceph6buffer4list6appendERKNS0_3ptrE@Base 0.87
 _ZN4ceph6buffer4list6appendERKNS0_3ptrEjj@Base 0.87
 _ZN4ceph6buffer4list6appendERKS1_@Base 0.87
 _ZN4ceph6buffer4list6appendERSi@Base 0.87
 _ZN4ceph6buffer4list6appendEc@Base 0.87
 _ZN4ceph6buffer4list6spliceEjjPS1_@Base 0.87
 _ZN4ceph6buffer4list7copy_inEjjPKc@Base 0.87
 _ZN4ceph6buffer4list7copy_inEjjRKS1_@Base 0.87
 _ZN4ceph6buffer4list7read_fdEij@Base 0.87
 _ZN4ceph6buffer4list7rebuildERNS0_3ptrE@Base 0.87
 _ZN4ceph6buffer4list7rebuildEv@Base 0.87
 _ZN4ceph6buffer4list8iterator15get_current_ptrEv@Base 0.87
 _ZN4ceph6buffer4list8iterator4copyEjPc@Base 0.87
 _ZN4ceph6buffer4list8iterator4copyEjRNS0_3ptrE@Base 0.87
 _ZN4ceph6buffer4list8iterator4copyEjRS1_@Base 0.87
 _ZN4ceph6buffer4list8iterator4copyEjRSs@Base 0.87
 _ZN4ceph6buffer4list8iterator4seekEj@Base 0.87
 _ZN4ceph6buffer4list8iterator7advanceEi@Base 0.87
 _ZN4ceph6buffer4list8iterator7copy_inEjPKc@Base 0.87
 _ZN4ceph6buffer4list8iterator7copy_inEjRKS1_@Base 0.87
 _ZN4ceph6buffer4list8iterator8copy_allERS1_@Base 0.87
 _ZN4ceph6buffer4list8iteratordeEv@Base 0.87
 _ZN4ceph6buffer4list8iteratorppEv@Base 0.87
 _ZN4ceph6buffer4list9read_fileEPKcPSs@Base 0.87
 _ZN4ceph6buffer4list9substr_ofERKS1_jj@Base 0.87
 _ZN4ceph6buffer5errorD0Ev@Base 0.87
 _ZN4ceph6buffer5errorD1Ev@Base 0.87
 _ZN4ceph6buffer5errorD2Ev@Base 0.87
 _ZN4ceph6buffer6createEj@Base 0.87
 _ZN4ceph6buffer9bad_allocD0Ev@Base 0.87
 _ZN4ceph6buffer9bad_allocD1Ev@Base 0.87
 _ZN4ceph6buffer9bad_allocD2Ev@Base 0.87
 _ZN8librados10ListObjectC1EPNS_14ListObjectImplE@Base 0.87
 _ZN8librados10ListObjectC1ERKS0_@Base 0.87
 _ZN8librados10ListObjectC1Ev@Base 0.87
 _ZN8librados10ListObjectC2EPNS_14ListObjectImplE@Base 0.87
 _ZN8librados10ListObjectC2ERKS0_@Base 0.87
 _ZN8librados10ListObjectC2Ev@Base 0.87
 _ZN8librados10ListObjectD1Ev@Base 0.87
 _ZN8librados10ListObjectD2Ev@Base 0.87
 _ZN8librados10ListObjectaSERKS0_@Base 0.87
 _ZN8librados13AioCompletion11get_versionEv@Base 0.87
 _ZN8librados13AioCompletion11is_completeEv@Base 0.87
 _ZN8librados13AioCompletion13get_version64Ev@Base 0.87
 _ZN8librados13AioCompletion13wait_for_safeEv@Base 0.87
 _ZN8librados13AioCompletion14is_safe_and_cbEv@Base 0.87
 _ZN8librados13AioCompletion16get_return_valueEv@Base 0.87
 _ZN8librados13AioCompletion17set_safe_callbackEPvPFvS1_S1_E@Base 0.87
 _ZN8librados13AioCompletion17wait_for_completeEv@Base 0.87
 _ZN8librados13AioCompletion18is_complete_and_cbEv@Base 0.87
 _ZN8librados13AioCompletion20wait_for_safe_and_cbEv@Base 0.87
 _ZN8librados13AioCompletion21set_complete_callbackEPvPFvS1_S1_E@Base 0.87
 _ZN8librados13AioCompletion24wait_for_complete_and_cbEv@Base 0.87
 _ZN8librados13AioCompletion7is_safeEv@Base 0.87
 _ZN8librados13AioCompletion7releaseEv@Base 0.87
 _ZN8librados14ObjectIterator19__EndObjectIteratorE@Base 0.87
 _ZN8librados14ObjectIterator4seekEj@Base 0.87
 _ZN8librados14ObjectIterator8get_nextEv@Base 0.87
 _ZN8librados14ObjectIteratorC1EPNS_10ObjListCtxE@Base 0.87
 _ZN8librados14ObjectIteratorC1ERKS0_@Base 0.87
 _ZN8librados14ObjectIteratorC2EPNS_10ObjListCtxE@Base 0.87
 _ZN8librados14ObjectIteratorC2ERKS0_@Base 0.87
 _ZN8librados14ObjectIteratorD1Ev@Base 0.87
 _ZN8librados14ObjectIteratorD2Ev@Base 0.87
 _ZN8librados14ObjectIteratoraSERKS0_@Base 0.87
 _ZN8librados14ObjectIteratorppEi@Base 0.87
 _ZN8librados14ObjectIteratorppEv@Base 0.87
 _ZN8librados15NObjectIterator19__EndObjectIteratorE@Base 0.87
 _ZN8librados15NObjectIterator4seekEj@Base 0.87
 _ZN8librados15NObjectIterator8get_nextEv@Base 0.87
 _ZN8librados15NObjectIteratorC1EPNS_10ObjListCtxE@Base 0.87
 _ZN8librados15NObjectIteratorC1ERKS0_@Base 0.87
 _ZN8librados15NObjectIteratorC2EPNS_10ObjListCtxE@Base 0.87
 _ZN8librados15NObjectIteratorC2ERKS0_@Base 0.87
 _ZN8librados15NObjectIteratorD1Ev@Base 0.87
 _ZN8librados15NObjectIteratorD2Ev@Base 0.87
 _ZN8librados15NObjectIteratoraSERKS0_@Base 0.87
 _ZN8librados15NObjectIteratorppEi@Base 0.87
 _ZN8librados15NObjectIteratorppEv@Base 0.87
 _ZN8librados15ObjectOperation12set_op_flagsENS_20ObjectOperationFlagsE@Base 0.87
 _ZN8librados15ObjectOperation12src_cmpxattrERKSsPKciRKN4ceph6buffer4listE@Base 0.87
 _ZN8librados15ObjectOperation12src_cmpxattrERKSsPKciy@Base 0.87
 _ZN8librados15ObjectOperation13assert_existsEv@Base 0.87
 _ZN8librados15ObjectOperation13set_op_flags2Ei@Base 0.87
 _ZN8librados15ObjectOperation14assert_versionEy@Base 0.87
 _ZN8librados15ObjectOperation4execEPKcS2_RN4ceph6buffer4listE@Base 0.87
 _ZN8librados15ObjectOperation4execEPKcS2_RN4ceph6buffer4listEPNS_25ObjectOperationCompletionE@Base 0.87
 _ZN8librados15ObjectOperation4execEPKcS2_RN4ceph6buffer4listEPS5_Pi@Base 0.87
 _ZN8librados15ObjectOperation4sizeEv@Base 0.87
 _ZN8librados15ObjectOperation8cmpxattrEPKchRKN4ceph6buffer4listE@Base 0.87
 _ZN8librados15ObjectOperation8cmpxattrEPKchy@Base 0.87
 _ZN8librados15ObjectOperation8omap_cmpERKSt3mapISsSt4pairIN4ceph6buffer4listEiESt4lessISsESaIS2_IKSsS6_EEEPi@Base 0.87
 _ZN8librados15ObjectOperationC1Ev@Base 0.87
 _ZN8librados15ObjectOperationC2Ev@Base 0.87
 _ZN8librados15ObjectOperationD0Ev@Base 0.87
 _ZN8librados15ObjectOperationD1Ev@Base 0.87
 _ZN8librados15ObjectOperationD2Ev@Base 0.87
 _ZN8librados19ObjectReadOperation10list_snapsEPNS_10snap_set_tEPi@Base 0.87
 _ZN8librados19ObjectReadOperation11cache_evictEv@Base 0.87
 _ZN8librados19ObjectReadOperation11cache_flushEv@Base 0.87
 _ZN8librados19ObjectReadOperation11sparse_readEyyPSt3mapIyySt4lessIyESaISt4pairIKyyEEEPN4ceph6buffer4listEPi@Base 0.87
 _ZN8librados19ObjectReadOperation13list_watchersEPSt4listI11obj_watch_tSaIS2_EEPi@Base 0.87
 _ZN8librados19ObjectReadOperation13omap_get_keysERKSsyPSt3setISsSt4lessISsESaISsEEPi@Base 0.87
 _ZN8librados19ObjectReadOperation13omap_get_valsERKSsS2_yPSt3mapISsN4ceph6buffer4listESt4lessISsESaISt4pairIS1_S6_EEEPi@Base 0.87
 _ZN8librados19ObjectReadOperation13omap_get_valsERKSsyPSt3mapISsN4ceph6buffer4listESt4lessISsESaISt4pairIS1_S6_EEEPi@Base 0.87
 _ZN8librados19ObjectReadOperation15cache_try_flushEv@Base 0.87
 _ZN8librados19ObjectReadOperation15omap_get_headerEPN4ceph6buffer4listEPi@Base 0.87
 _ZN8librados19ObjectReadOperation21omap_get_vals_by_keysERKSt3setISsSt4lessISsESaISsEEPSt3mapISsN4ceph6buffer4listES3_SaISt4pairIKSsSB_EEEPi@Base 0.87
 _ZN8librados19ObjectReadOperation4readEjyPN4ceph6buffer4listEPi@Base 0.87
 _ZN8librados19ObjectReadOperation4statEPyPlPi@Base 0.87
 _ZN8librados19ObjectReadOperation8getxattrEPKcPN4ceph6buffer4listEPi@Base 0.87
 _ZN8librados19ObjectReadOperation8is_dirtyEPbPi@Base 0.87
 _ZN8librados19ObjectReadOperation8tmap_getEPN4ceph6buffer4listEPi@Base 0.87
 _ZN8librados19ObjectReadOperation9getxattrsEPSt3mapISsN4ceph6buffer4listESt4lessISsESaISt4pairIKSsS4_EEEPi@Base 0.87
 _ZN8librados19PoolAsyncCompletion11is_completeEv@Base 0.87
 _ZN8librados19PoolAsyncCompletion12set_callbackEPvPFvS1_S1_E@Base 0.87
 _ZN8librados19PoolAsyncCompletion16get_return_valueEv@Base 0.87
 _ZN8librados19PoolAsyncCompletion4waitEv@Base 0.87
 _ZN8librados19PoolAsyncCompletion7releaseEv@Base 0.87
 _ZN8librados20ObjectWriteOperation10omap_clearEv@Base 0.87
 _ZN8librados20ObjectWriteOperation10write_fullERKN4ceph6buffer4listE@Base 0.87
 _ZN8librados20ObjectWriteOperation11clone_rangeEyRKSsyj@Base 0.87
 _ZN8librados20ObjectWriteOperation11tmap_updateERKN4ceph6buffer4listE@Base 0.87
 _ZN8librados20ObjectWriteOperation12omap_rm_keysERKSt3setISsSt4lessISsESaISsEE@Base 0.87
 _ZN8librados20ObjectWriteOperation13snap_rollbackEy@Base 0.87
 _ZN8librados20ObjectWriteOperation14set_alloc_hintEyy@Base 0.87
 _ZN8librados20ObjectWriteOperation15omap_set_headerERKN4ceph6buffer4listE@Base 0.87
 _ZN8librados20ObjectWriteOperation25selfmanaged_snap_rollbackEy@Base 0.87
 _ZN8librados20ObjectWriteOperation4zeroEyy@Base 0.87
 _ZN8librados20ObjectWriteOperation5writeEyRKN4ceph6buffer4listE@Base 0.87
 _ZN8librados20ObjectWriteOperation6appendERKN4ceph6buffer4listE@Base 0.87
 _ZN8librados20ObjectWriteOperation6createEb@Base 0.87
 _ZN8librados20ObjectWriteOperation6createEbRKSs@Base 0.87
 _ZN8librados20ObjectWriteOperation6removeEv@Base 0.87
 _ZN8librados20ObjectWriteOperation7rmxattrEPKc@Base 0.87
 _ZN8librados20ObjectWriteOperation7undirtyEv@Base 0.87
 _ZN8librados20ObjectWriteOperation8omap_setERKSt3mapISsN4ceph6buffer4listESt4lessISsESaISt4pairIKSsS4_EEE@Base 0.87
 _ZN8librados20ObjectWriteOperation8setxattrEPKcRKN4ceph6buffer4listE@Base 0.87
 _ZN8librados20ObjectWriteOperation8tmap_putERKN4ceph6buffer4listE@Base 0.87
 _ZN8librados20ObjectWriteOperation8truncateEy@Base 0.87
 _ZN8librados20ObjectWriteOperation9copy_fromERKSsRKNS_5IoCtxEy@Base 0.87
 _ZN8librados5IoCtx10aio_appendERKSsPNS_13AioCompletionERKN4ceph6buffer4listEj@Base 0.87
 _ZN8librados5IoCtx10aio_cancelEPNS_13AioCompletionE@Base 0.87
 _ZN8librados5IoCtx10aio_removeERKSsPNS_13AioCompletionE@Base 0.87
 _ZN8librados5IoCtx10break_lockERKSsS2_S2_S2_@Base 0.87
 _ZN8librados5IoCtx10list_snapsERKSsPNS_10snap_set_tE@Base 0.87
 _ZN8librados5IoCtx10notify_ackERKSsyyRN4ceph6buffer4listE@Base 0.87
 _ZN8librados5IoCtx10omap_clearERKSs@Base 0.87
 _ZN8librados5IoCtx10write_fullERKSsRN4ceph6buffer4listE@Base 0.87
 _ZN8librados5IoCtx11aio_operateERKSsPNS_13AioCompletionEPNS_19ObjectReadOperationEPN4ceph6buffer4listE@Base 0.87
 _ZN8librados5IoCtx11aio_operateERKSsPNS_13AioCompletionEPNS_19ObjectReadOperationEiPN4ceph6buffer4listE@Base 0.87
 _ZN8librados5IoCtx11aio_operateERKSsPNS_13AioCompletionEPNS_19ObjectReadOperationEyiPN4ceph6buffer4listE@Base 0.87
 _ZN8librados5IoCtx11aio_operateERKSsPNS_13AioCompletionEPNS_20ObjectWriteOperationE@Base 0.87
 _ZN8librados5IoCtx11aio_operateERKSsPNS_13AioCompletionEPNS_20ObjectWriteOperationEi@Base 0.87
 _ZN8librados5IoCtx11aio_operateERKSsPNS_13AioCompletionEPNS_20ObjectWriteOperationEyRSt6vectorIySaIyEE@Base 0.87
 _ZN8librados5IoCtx11clone_rangeERKSsyS2_yj@Base 0.87
 _ZN8librados5IoCtx11hit_set_getEjPNS_13AioCompletionElPN4ceph6buffer4listE@Base 0.87
 _ZN8librados5IoCtx11lock_sharedERKSsS2_S2_S2_S2_P7timevalh@Base 0.87
 _ZN8librados5IoCtx11snap_createEPKc@Base 0.87
 _ZN8librados5IoCtx11snap_lookupEPKcPy@Base 0.87
 _ZN8librados5IoCtx11snap_removeEPKc@Base 0.87
 _ZN8librados5IoCtx11sparse_readERKSsRSt3mapIyySt4lessIyESaISt4pairIKyyEEERN4ceph6buffer4listEjy@Base 0.87
 _ZN8librados5IoCtx11tmap_updateERKSsRN4ceph6buffer4listE@Base 0.87
 _ZN8librados5IoCtx11watch_checkEy@Base 0.87
 _ZN8librados5IoCtx12hit_set_listEjPNS_13AioCompletionEPSt4listISt4pairIllESaIS5_EE@Base 0.87
 _ZN8librados5IoCtx12list_lockersERKSsS2_PiPSsPSt4listINS_8locker_tESaIS6_EE@Base 0.87
 _ZN8librados5IoCtx12omap_rm_keysERKSsRKSt3setISsSt4lessISsESaISsEE@Base 0.87
 _ZN8librados5IoCtx12tmap_to_omapERKSsb@Base 0.87
 _ZN8librados5IoCtx13get_pool_nameEv@Base 0.87
 _ZN8librados5IoCtx13list_watchersERKSsPSt4listI11obj_watch_tSaIS4_EE@Base 0.87
 _ZN8librados5IoCtx13objects_beginEj@Base 0.87
 _ZN8librados5IoCtx13objects_beginEv@Base 0.87
 _ZN8librados5IoCtx13omap_get_keysERKSsS2_yPSt3setISsSt4lessISsESaISsEE@Base 0.87
 _ZN8librados5IoCtx13omap_get_valsERKSsS2_S2_yPSt3mapISsN4ceph6buffer4listESt4lessISsESaISt4pairIS1_S6_EEE@Base 0.87
 _ZN8librados5IoCtx13omap_get_valsERKSsS2_yPSt3mapISsN4ceph6buffer4listESt4lessISsESaISt4pairIS1_S6_EEE@Base 0.87
 _ZN8librados5IoCtx13set_namespaceERKSs@Base 0.87
 _ZN8librados5IoCtx13snap_get_nameEyPSs@Base 0.87
 _ZN8librados5IoCtx13snap_rollbackERKSsPKc@Base 0.87
 _ZN8librados5IoCtx13snap_set_readEy@Base 0.87
 _ZN8librados5IoCtx14aio_write_fullERKSsPNS_13AioCompletionERKN4ceph6buffer4listE@Base 0.87
 _ZN8librados5IoCtx14lock_exclusiveERKSsS2_S2_S2_P7timevalh@Base 0.87
 _ZN8librados5IoCtx14nobjects_beginEj@Base 0.87
 _ZN8librados5IoCtx14nobjects_beginEv@Base 0.87
 _ZN8librados5IoCtx14set_alloc_hintERKSsyy@Base 0.87
 _ZN8librados5IoCtx14set_auid_asyncEyPNS_19PoolAsyncCompletionE@Base 0.87
 _ZN8librados5IoCtx14snap_get_stampEyPl@Base 0.87
 _ZN8librados5IoCtx15aio_flush_asyncEPNS_13AioCompletionE@Base 0.87
 _ZN8librados5IoCtx15aio_sparse_readERKSsPNS_13AioCompletionEPSt3mapIyySt4lessIyESaISt4pairIKyyEEEPN4ceph6buffer4listEjy@Base 0.87
 _ZN8librados5IoCtx15aio_sparse_readERKSsPNS_13AioCompletionEPSt3mapIyySt4lessIyESaISt4pairIKyyEEEPN4ceph6buffer4listEjyy@Base 0.87
 _ZN8librados5IoCtx15locator_set_keyERKSs@Base 0.87
 _ZN8librados5IoCtx15omap_get_headerERKSsPN4ceph6buffer4listE@Base 0.87
 _ZN8librados5IoCtx15omap_set_headerERKSsRKN4ceph6buffer4listE@Base 0.87
 _ZN8librados5IoCtx16get_last_versionEv@Base 0.87
 _ZN8librados5IoCtx18from_rados_ioctx_tEPvRS0_@Base 0.87
 _ZN8librados5IoCtx18set_assert_versionEy@Base 0.87
 _ZN8librados5IoCtx18set_notify_timeoutEj@Base 0.87
 _ZN8librados5IoCtx21omap_get_vals_by_keysERKSsRKSt3setISsSt4lessISsESaISsEEPSt3mapISsN4ceph6buffer4listES5_SaISt4pairIS1_SD_EEE@Base 0.87
 _ZN8librados5IoCtx22set_assert_src_versionERKSsy@Base 0.87
 _ZN8librados5IoCtx23pool_required_alignmentEv@Base 0.87
 _ZN8librados5IoCtx23pool_requires_alignmentEv@Base 0.87
 _ZN8librados5IoCtx23selfmanaged_snap_createEPy@Base 0.87
 _ZN8librados5IoCtx23selfmanaged_snap_removeEy@Base 0.87
 _ZN8librados5IoCtx24get_object_hash_positionERKSs@Base 0.87
 _ZN8librados5IoCtx25selfmanaged_snap_rollbackERKSsy@Base 0.87
 _ZN8librados5IoCtx27get_object_pg_hash_positionERKSs@Base 0.87
 _ZN8librados5IoCtx30selfmanaged_snap_set_write_ctxEyRSt6vectorIySaIyEE@Base 0.87
 _ZN8librados5IoCtx3cctEv@Base 0.87
 _ZN8librados5IoCtx3dupERKS0_@Base 0.87
 _ZN8librados5IoCtx4execERKSsPKcS4_RN4ceph6buffer4listES8_@Base 0.87
 _ZN8librados5IoCtx4readERKSsRN4ceph6buffer4listEjy@Base 0.87
 _ZN8librados5IoCtx4statERKSsPyPl@Base 0.87
 _ZN8librados5IoCtx5closeEv@Base 0.87
 _ZN8librados5IoCtx5truncERKSsy@Base 0.87
 _ZN8librados5IoCtx5watchERKSsyPyPNS_8WatchCtxE@Base 0.87
 _ZN8librados5IoCtx5writeERKSsRN4ceph6buffer4listEjy@Base 0.87
 _ZN8librados5IoCtx6appendERKSsRN4ceph6buffer4listEj@Base 0.87
 _ZN8librados5IoCtx6createERKSsb@Base 0.87
 _ZN8librados5IoCtx6createERKSsbS2_@Base 0.87
 _ZN8librados5IoCtx6get_idEv@Base 0.87
 _ZN8librados5IoCtx6mapextERKSsyjRSt3mapIyySt4lessIyESaISt4pairIKyyEEE@Base 0.87
 _ZN8librados5IoCtx6notifyERKSsyRN4ceph6buffer4listE@Base 0.87
 _ZN8librados5IoCtx6removeERKSs@Base 0.87
 _ZN8librados5IoCtx6unlockERKSsS2_S2_@Base 0.87
 _ZN8librados5IoCtx6watch2ERKSsPyPNS_9WatchCtx2E@Base 0.87
 _ZN8librados5IoCtx7notify2ERKSsRN4ceph6buffer4listEyPS5_@Base 0.87
 _ZN8librados5IoCtx7operateERKSsPNS_19ObjectReadOperationEPN4ceph6buffer4listE@Base 0.87
 _ZN8librados5IoCtx7operateERKSsPNS_20ObjectWriteOperationE@Base 0.87
 _ZN8librados5IoCtx7rmxattrERKSsPKc@Base 0.87
 _ZN8librados5IoCtx7unwatchERKSsy@Base 0.87
 _ZN8librados5IoCtx8aio_execERKSsPNS_13AioCompletionEPKcS6_RN4ceph6buffer4listEPS9_@Base 0.87
 _ZN8librados5IoCtx8aio_readERKSsPNS_13AioCompletionEPN4ceph6buffer4listEjy@Base 0.87
 _ZN8librados5IoCtx8aio_readERKSsPNS_13AioCompletionEPN4ceph6buffer4listEjyy@Base 0.87
 _ZN8librados5IoCtx8aio_statERKSsPNS_13AioCompletionEPyPl@Base 0.87
 _ZN8librados5IoCtx8get_auidEPy@Base 0.87
 _ZN8librados5IoCtx8getxattrERKSsPKcRN4ceph6buffer4listE@Base 0.87
 _ZN8librados5IoCtx8omap_setERKSsRKSt3mapISsN4ceph6buffer4listESt4lessISsESaISt4pairIS1_S6_EEE@Base 0.87
 _ZN8librados5IoCtx8rollbackERKSsPKc@Base 0.87
 _ZN8librados5IoCtx8set_auidEy@Base 0.87
 _ZN8librados5IoCtx8setxattrERKSsPKcRN4ceph6buffer4listE@Base 0.87
 _ZN8librados5IoCtx8tmap_getERKSsRN4ceph6buffer4listE@Base 0.87
 _ZN8librados5IoCtx8tmap_putERKSsRN4ceph6buffer4listE@Base 0.87
 _ZN8librados5IoCtx8unwatch2Ey@Base 0.87
 _ZN8librados5IoCtx9aio_flushEv@Base 0.87
 _ZN8librados5IoCtx9aio_writeERKSsPNS_13AioCompletionERKN4ceph6buffer4listEjy@Base 0.87
 _ZN8librados5IoCtx9getxattrsERKSsRSt3mapISsN4ceph6buffer4listESt4lessISsESaISt4pairIS1_S6_EEE@Base 0.87
 _ZN8librados5IoCtx9snap_listEPSt6vectorIySaIyEE@Base 0.87
 _ZN8librados5IoCtxC1EPNS_9IoCtxImplE@Base 0.87
 _ZN8librados5IoCtxC1ERKS0_@Base 0.87
 _ZN8librados5IoCtxC1Ev@Base 0.87
 _ZN8librados5IoCtxC2EPNS_9IoCtxImplE@Base 0.87
 _ZN8librados5IoCtxC2ERKS0_@Base 0.87
 _ZN8librados5IoCtxC2Ev@Base 0.87
 _ZN8librados5IoCtxD1Ev@Base 0.87
 _ZN8librados5IoCtxD2Ev@Base 0.87
 _ZN8librados5IoCtxaSERKS0_@Base 0.87
 _ZN8librados5Rados10pool_list2ERSt4listISt4pairIxSsESaIS3_EE@Base 0.87
 _ZN8librados5Rados11mon_commandESsRKN4ceph6buffer4listEPS3_PSs@Base 0.87
 _ZN8librados5Rados11pool_createEPKc@Base 0.87
 _ZN8librados5Rados11pool_createEPKcy@Base 0.87
 _ZN8librados5Rados11pool_createEPKcyh@Base 0.87
 _ZN8librados5Rados11pool_deleteEPKc@Base 0.87
 _ZN8librados5Rados11pool_lookupEPKc@Base 0.87
 _ZN8librados5Rados11watch_flushEv@Base 0.87
 _ZN8librados5Rados12cluster_fsidEPSs@Base 0.87
 _ZN8librados5Rados12cluster_statERNS_14cluster_stat_tE@Base 0.87
 _ZN8librados5Rados12ioctx_createEPKcRNS_5IoCtxE@Base 0.87
 _ZN8librados5Rados13blacklist_addERKSsj@Base 0.87
 _ZN8librados5Rados13ioctx_create2ExRNS_5IoCtxE@Base 0.87
 _ZN8librados5Rados14get_pool_statsERSt4listISsSaISsEERSsRSt3mapISsS6_ISsNS_11pool_stat_tESt4lessISsESaISt4pairIKSsS7_EEES9_SaISA_ISB_SE_EEE@Base 0.87
 _ZN8librados5Rados14get_pool_statsERSt4listISsSaISsEERSt3mapISsNS_11pool_stat_tESt4lessISsESaISt4pairIKSsS6_EEE@Base 0.87
 _ZN8librados5Rados14get_pool_statsERSt4listISsSaISsEERSt3mapISsS5_ISsNS_11pool_stat_tESt4lessISsESaISt4pairIKSsS6_EEES8_SaIS9_ISA_SD_EEE@Base 0.87
 _ZN8librados5Rados15get_instance_idEv@Base 0.87
 _ZN8librados5Rados17init_with_contextEPv@Base 0.87
 _ZN8librados5Rados17pool_create_asyncEPKcPNS_19PoolAsyncCompletionE@Base 0.87
 _ZN8librados5Rados17pool_create_asyncEPKcyPNS_19PoolAsyncCompletionE@Base 0.87
 _ZN8librados5Rados17pool_create_asyncEPKcyhPNS_19PoolAsyncCompletionE@Base 0.87
 _ZN8librados5Rados17pool_delete_asyncEPKcPNS_19PoolAsyncCompletionE@Base 0.87
 _ZN8librados5Rados18pool_get_base_tierExPx@Base 0.87
 _ZN8librados5Rados19pool_reverse_lookupExPSs@Base 0.87
 _ZN8librados5Rados19test_blacklist_selfEb@Base 0.87
 _ZN8librados5Rados21aio_create_completionEPvPFvS1_S1_ES3_@Base 0.87
 _ZN8librados5Rados21aio_create_completionEv@Base 0.87
 _ZN8librados5Rados22wait_for_latest_osdmapEv@Base 0.87
 _ZN8librados5Rados28pool_async_create_completionEv@Base 0.87
 _ZN8librados5Rados3cctEv@Base 0.87
 _ZN8librados5Rados4initEPKc@Base 0.87
 _ZN8librados5Rados5init2EPKcS2_y@Base 0.87
 _ZN8librados5Rados7connectEv@Base 0.87
 _ZN8librados5Rados7versionEPiS1_S1_@Base 0.87
 _ZN8librados5Rados8conf_getEPKcRSs@Base 0.87
 _ZN8librados5Rados8conf_setEPKcS2_@Base 0.87
 _ZN8librados5Rados8shutdownEv@Base 0.87
 _ZN8librados5Rados9pool_listERSt4listISsSaISsEE@Base 0.87
 _ZN8librados5RadosC1ERNS_5IoCtxE@Base 0.87
 _ZN8librados5RadosC1Ev@Base 0.87
 _ZN8librados5RadosC2ERNS_5IoCtxE@Base 0.87
 _ZN8librados5RadosC2Ev@Base 0.87
 _ZN8librados5RadosD1Ev@Base 0.87
 _ZN8librados5RadosD2Ev@Base 0.87
 _ZN8librados8WatchCtxD0Ev@Base 0.87
 _ZN8librados8WatchCtxD1Ev@Base 0.87
 _ZN8librados8WatchCtxD2Ev@Base 0.87
 _ZN8librados9WatchCtx2D0Ev@Base 0.87
 _ZN8librados9WatchCtx2D1Ev@Base 0.87
 _ZN8librados9WatchCtx2D2Ev@Base 0.87
 _ZN8libradoslsERSoRKNS_10ListObjectE@Base 0.87
 _ZNK4ceph6buffer3ptr10raw_lengthEv@Base 0.87
 _ZNK4ceph6buffer3ptr13can_zero_copyEv@Base 0.87
 _ZNK4ceph6buffer3ptr14at_buffer_tailEv@Base 0.87
 _ZNK4ceph6buffer3ptr15zero_copy_to_fdEiPx@Base 0.87
 _ZNK4ceph6buffer3ptr18unused_tail_lengthEv@Base 0.87
 _ZNK4ceph6buffer3ptr3cmpERKS1_@Base 0.87
 _ZNK4ceph6buffer3ptr5c_strEv@Base 0.87
 _ZNK4ceph6buffer3ptr7is_zeroEv@Base 0.87
 _ZNK4ceph6buffer3ptr8raw_nrefEv@Base 0.87
 _ZNK4ceph6buffer3ptr9raw_c_strEv@Base 0.87
 _ZNK4ceph6buffer3ptrixEj@Base 0.87
 _ZNK4ceph6buffer4list10is_alignedEj@Base 0.87
 _ZNK4ceph6buffer4list12write_streamERSo@Base 0.87
 _ZNK4ceph6buffer4list13can_zero_copyEv@Base 0.87
 _ZNK4ceph6buffer4list15is_n_page_sizedEv@Base 0.87
 _ZNK4ceph6buffer4list15is_page_alignedEv@Base 0.87
 _ZNK4ceph6buffer4list16is_n_align_sizedEj@Base 0.87
 _ZNK4ceph6buffer4list18write_fd_zero_copyEi@Base 0.87
 _ZNK4ceph6buffer4list4copyEjjPc@Base 0.87
 _ZNK4ceph6buffer4list4copyEjjRS1_@Base 0.87
 _ZNK4ceph6buffer4list4copyEjjRSs@Base 0.87
 _ZNK4ceph6buffer4list5writeEiiRSo@Base 0.87
 _ZNK4ceph6buffer4list6crc32cEj@Base 0.87
 _ZNK4ceph6buffer4list7hexdumpERSo@Base 0.87
 _ZNK4ceph6buffer4list7is_zeroEv@Base 0.87
 _ZNK4ceph6buffer4list8write_fdEi@Base 0.87
 _ZNK4ceph6buffer4listixEj@Base 0.87
 _ZNK8librados10ListObject10get_nspaceEv@Base 0.87
 _ZNK8librados10ListObject11get_locatorEv@Base 0.87
 _ZNK8librados10ListObject7get_oidEv@Base 0.87
 _ZNK8librados14ObjectIterator20get_pg_hash_positionEv@Base 0.87
 _ZNK8librados14ObjectIteratordeEv@Base 0.87
 _ZNK8librados14ObjectIteratoreqERKS0_@Base 0.87
 _ZNK8librados14ObjectIteratorneERKS0_@Base 0.87
 _ZNK8librados14ObjectIteratorptEv@Base 0.87
 _ZNK8librados15NObjectIterator20get_pg_hash_positionEv@Base 0.87
 _ZNK8librados15NObjectIteratordeEv@Base 0.87
 _ZNK8librados15NObjectIteratoreqERKS0_@Base 0.87
 _ZNK8librados15NObjectIteratorneERKS0_@Base 0.87
 _ZNK8librados15NObjectIteratorptEv@Base 0.87
 _ZNK8librados5IoCtx11objects_endEv@Base 0.87
 _ZNK8librados5IoCtx12nobjects_endEv@Base 0.87
 _ZNK8librados5IoCtx13get_pool_nameEv@Base 0.87
 _ZNK8librados5IoCtx15get_instance_idEv@Base 0.87
 _ZNK8librados5Rados14conf_parse_envEPKc@Base 0.87
 _ZNK8librados5Rados14conf_read_fileEPKc@Base 0.87
 _ZNK8librados5Rados15conf_parse_argvEiPPKc@Base 0.87
 _ZNK8librados5Rados25conf_parse_argv_remainderEiPPKcS3_@Base 0.87
 _ZNSs12_S_constructIPcEES0_T_S1_RKSaIcESt20forward_iterator_tag@Base 0.87
 _ZNSt10_List_baseIN4ceph6buffer3ptrESaIS2_EE8_M_clearEv@Base 0.87
 _ZNSt10_List_baseISsSaISsEE8_M_clearEv@Base 0.87
 _ZNSt10_List_baseISt4pairIxSsESaIS1_EE8_M_clearEv@Base 0.87
 _ZNSt12_Destroy_auxILb0EE9__destroyIPSsEEvT_S3_@Base 0.87
 _ZNSt15basic_stringbufIcSt11char_traitsIcESaIcEED0Ev@Base 0.87
 _ZNSt15basic_stringbufIcSt11char_traitsIcESaIcEED1Ev@Base 0.87
 _ZNSt15basic_stringbufIcSt11char_traitsIcESaIcEED2Ev@Base 0.87
 _ZNSt20__uninitialized_copyILb0EE13__uninit_copyIPSsS2_EET0_T_S4_S3_@Base 0.87
 _ZNSt3mapISsN4ceph6buffer4listESt4lessISsESaISt4pairIKSsS2_EEEixERS6_@Base 0.87
 _ZNSt3tr116_Sp_counted_baseILN9__gnu_cxx12_Lock_policyE2EE10_M_destroyEv@Base 0.87
 _ZNSt3tr116_Sp_counted_baseILN9__gnu_cxx12_Lock_policyE2EE10_M_releaseEv@Base 0.87
 _ZNSt4listIN4ceph6buffer3ptrESaIS2_EEaSERKS4_@Base 0.87
 _ZNSt4pairISsSsED1Ev@Base 0.87
 _ZNSt4pairISsSsED2Ev@Base 0.87
 _ZNSt5dequeISsSaISsEED1Ev@Base 0.87
 _ZNSt5dequeISsSaISsEED2Ev@Base 0.87
 _ZNSt6vectorIPKcSaIS1_EE13_M_insert_auxEN9__gnu_cxx17__normal_iteratorIPS1_S3_EERKS1_@Base 0.87
 _ZNSt6vectorIPN4ceph6buffer4listESaIS3_EE14_M_fill_insertEN9__gnu_cxx17__normal_iteratorIPS3_S5_EEjRKS3_@Base 0.87
 _ZNSt6vectorIPiSaIS0_EE14_M_fill_insertEN9__gnu_cxx17__normal_iteratorIPS0_S2_EEjRKS0_@Base 0.87
 _ZNSt6vectorISsSaISsEE13_M_insert_auxEN9__gnu_cxx17__normal_iteratorIPSsS1_EERKSs@Base 0.87
 _ZNSt6vectorISsSaISsEED1Ev@Base 0.87
 _ZNSt6vectorISsSaISsEED2Ev@Base 0.87
 _ZNSt6vectorISt4pairIyyESaIS1_EE14_M_fill_insertEN9__gnu_cxx17__normal_iteratorIPS1_S3_EEjRKS1_@Base 0.87
 _ZNSt6vectorISt4pairIyyESaIS1_EEaSERKS3_@Base 0.87
 _ZNSt6vectorIySaIyEE15_M_range_insertIN9__gnu_cxx17__normal_iteratorIP8snapid_tS_IS5_SaIS5_EEEEEEvNS4_IPyS1_EET_SC_St20forward_iterator_tag@Base 0.87
 _ZNSt6vectorIySaIyEEaSERKS1_@Base 0.87
 _ZNSt8_Rb_treeISsSsSt9_IdentityISsESt4lessISsESaISsEE10_M_insert_EPSt18_Rb_tree_node_baseS7_RKSs@Base 0.87
 _ZNSt8_Rb_treeISsSsSt9_IdentityISsESt4lessISsESaISsEE16_M_insert_uniqueIPKPKcEEvT_SB_@Base 0.87
 _ZNSt8_Rb_treeISsSsSt9_IdentityISsESt4lessISsESaISsEE24_M_get_insert_unique_posERKSs@Base 0.87
 _ZNSt8_Rb_treeISsSsSt9_IdentityISsESt4lessISsESaISsEE8_M_eraseEPSt13_Rb_tree_nodeISsE@Base 0.87
 _ZNSt8_Rb_treeISsSt4pairIKSsN4ceph6buffer4listEESt10_Select1stIS5_ESt4lessISsESaIS5_EE17_M_insert_unique_ESt23_Rb_tree_const_iteratorIS5_ERKS5_@Base 0.87
 _ZNSt8_Rb_treeISsSt4pairIKSsN4ceph6buffer4listEESt10_Select1stIS5_ESt4lessISsESaIS5_EE24_M_get_insert_unique_posERS1_@Base 0.87
 _ZNSt8_Rb_treeISsSt4pairIKSsN4ceph6buffer4listEESt10_Select1stIS5_ESt4lessISsESaIS5_EE8_M_eraseEPSt13_Rb_tree_nodeIS5_E@Base 0.87
 _ZNSt8_Rb_treeISsSt4pairIKSsS0_IN4ceph6buffer4listEiEESt10_Select1stIS6_ESt4lessISsESaIS6_EE10_M_insert_EPSt18_Rb_tree_node_baseSE_RKS6_@Base 0.87
 _ZNSt8_Rb_treeISsSt4pairIKSsS0_IN4ceph6buffer4listEiEESt10_Select1stIS6_ESt4lessISsESaIS6_EE17_M_insert_unique_ESt23_Rb_tree_const_iteratorIS6_ERKS6_@Base 0.87
 _ZNSt8_Rb_treeISsSt4pairIKSsS0_IN4ceph6buffer4listEiEESt10_Select1stIS6_ESt4lessISsESaIS6_EE24_M_get_insert_unique_posERS1_@Base 0.87
 _ZNSt8_Rb_treeISsSt4pairIKSsS0_IN4ceph6buffer4listEiEESt10_Select1stIS6_ESt4lessISsESaIS6_EE8_M_eraseEPSt13_Rb_tree_nodeIS6_E@Base 0.87
 _ZNSt8_Rb_treeISt4pairIjjES0_IKS1_S1_ESt10_Select1stIS3_ESt4lessIS1_ESaIS3_EE17_M_insert_unique_ESt23_Rb_tree_const_iteratorIS3_ERKS3_@Base 0.87
 _ZNSt8_Rb_treeISt4pairIjjES0_IKS1_S1_ESt10_Select1stIS3_ESt4lessIS1_ESaIS3_EE24_M_get_insert_unique_posERS2_@Base 0.87
 _ZNSt8_Rb_treeISt4pairIjjES0_IKS1_S1_ESt10_Select1stIS3_ESt4lessIS1_ESaIS3_EE8_M_eraseEPSt13_Rb_tree_nodeIS3_E@Base 0.87
 _ZNSt8_Rb_treeIySt4pairIKyyESt10_Select1stIS2_ESt4lessIyESaIS2_EE17_M_insert_unique_ESt23_Rb_tree_const_iteratorIS2_ERKS2_@Base 0.87
 _ZNSt8_Rb_treeIySt4pairIKyyESt10_Select1stIS2_ESt4lessIyESaIS2_EE24_M_get_insert_unique_posERS1_@Base 0.87
 _ZNSt8_Rb_treeIySt4pairIKyyESt10_Select1stIS2_ESt4lessIyESaIS2_EE8_M_eraseEPSt13_Rb_tree_nodeIS2_E@Base 0.87
 _ZTIN4ceph6buffer10error_codeE@Base 0.87
 _ZTIN4ceph6buffer10raw_mallocE@Base 0.87
 _ZTIN4ceph6buffer10raw_staticE@Base 0.87
 _ZTIN4ceph6buffer13end_of_bufferE@Base 0.87
 _ZTIN4ceph6buffer15malformed_inputE@Base 0.87
 _ZTIN4ceph6buffer15raw_unshareableE@Base 0.87
 _ZTIN4ceph6buffer17raw_posix_alignedE@Base 0.87
 _ZTIN4ceph6buffer3rawE@Base 0.87
 _ZTIN4ceph6buffer5errorE@Base 0.87
 _ZTIN4ceph6buffer8raw_charE@Base 0.87
 _ZTIN4ceph6buffer8raw_pipeE@Base 0.87
 _ZTIN4ceph6buffer9bad_allocE@Base 0.87
 _ZTIN8librados15ObjectOperationE@Base 0.87
 _ZTIN8librados19ObjectReadOperationE@Base 0.87
 _ZTIN8librados20ObjectWriteOperationE@Base 0.87
 _ZTIN8librados8WatchCtxE@Base 0.87
 _ZTIN8librados9WatchCtx2E@Base 0.87
 _ZTINSt3tr111_Mutex_baseILN9__gnu_cxx12_Lock_policyE2EEE@Base 0.87
 _ZTINSt3tr116_Sp_counted_baseILN9__gnu_cxx12_Lock_policyE2EEE@Base 0.87
 _ZTSN4ceph6buffer10error_codeE@Base 0.87
 _ZTSN4ceph6buffer10raw_mallocE@Base 0.87
 _ZTSN4ceph6buffer10raw_staticE@Base 0.87
 _ZTSN4ceph6buffer13end_of_bufferE@Base 0.87
 _ZTSN4ceph6buffer15malformed_inputE@Base 0.87
 _ZTSN4ceph6buffer15raw_unshareableE@Base 0.87
 _ZTSN4ceph6buffer17raw_posix_alignedE@Base 0.87
 _ZTSN4ceph6buffer3rawE@Base 0.87
 _ZTSN4ceph6buffer5errorE@Base 0.87
 _ZTSN4ceph6buffer8raw_charE@Base 0.87
 _ZTSN4ceph6buffer8raw_pipeE@Base 0.87
 _ZTSN4ceph6buffer9bad_allocE@Base 0.87
 _ZTSN8librados15ObjectOperationE@Base 0.87
 _ZTSN8librados19ObjectReadOperationE@Base 0.87
 _ZTSN8librados20ObjectWriteOperationE@Base 0.87
 _ZTSN8librados8WatchCtxE@Base 0.87
 _ZTSN8librados9WatchCtx2E@Base 0.87
 _ZTSNSt3tr111_Mutex_baseILN9__gnu_cxx12_Lock_policyE2EEE@Base 0.87
 _ZTSNSt3tr116_Sp_counted_baseILN9__gnu_cxx12_Lock_policyE2EEE@Base 0.87
 _ZTVN4ceph6buffer10error_codeE@Base 0.87
 _ZTVN4ceph6buffer10raw_mallocE@Base 0.87
 _ZTVN4ceph6buffer10raw_staticE@Base 0.87
 _ZTVN4ceph6buffer13end_of_bufferE@Base 0.87
 _ZTVN4ceph6buffer15malformed_inputE@Base 0.87
 _ZTVN4ceph6buffer15raw_unshareableE@Base 0.87
 _ZTVN4ceph6buffer17raw_posix_alignedE@Base 0.87
 _ZTVN4ceph6buffer3rawE@Base 0.87
 _ZTVN4ceph6buffer5errorE@Base 0.87
 _ZTVN4ceph6buffer8raw_charE@Base 0.87
 _ZTVN4ceph6buffer8raw_pipeE@Base 0.87
 _ZTVN4ceph6buffer9bad_allocE@Base 0.87
 _ZTVN8librados15ObjectOperationE@Base 0.87
 _ZTVN8librados19ObjectReadOperationE@Base 0.87
 _ZTVN8librados20ObjectWriteOperationE@Base 0.87
 _ZTVN8librados8WatchCtxE@Base 0.87
 _ZTVN8librados9WatchCtx2E@Base 0.87
 _ZTVNSt3tr116_Sp_counted_baseILN9__gnu_cxx12_Lock_policyE2EEE@Base 0.87
 ceph_ver__e4bfad3a3c51054df7e537a724c8d0bf9be972ff@Base 0.93
 rados_aio_append@Base 0.72.2
 rados_aio_cancel@Base 0.87
 rados_aio_create_completion@Base 0.72.2
 rados_aio_flush@Base 0.72.2
 rados_aio_flush_async@Base 0.72.2
 rados_aio_get_return_value@Base 0.72.2
 rados_aio_is_complete@Base 0.72.2
 rados_aio_is_complete_and_cb@Base 0.72.2
 rados_aio_is_safe@Base 0.72.2
 rados_aio_is_safe_and_cb@Base 0.72.2
 rados_aio_read@Base 0.72.2
 rados_aio_read_op_operate@Base 0.79
 rados_aio_release@Base 0.72.2
 rados_aio_remove@Base 0.72.2
 rados_aio_stat@Base 0.72.2
 rados_aio_wait_for_complete@Base 0.72.2
 rados_aio_wait_for_complete_and_cb@Base 0.72.2
 rados_aio_wait_for_safe@Base 0.72.2
 rados_aio_wait_for_safe_and_cb@Base 0.72.2
 rados_aio_write@Base 0.72.2
 rados_aio_write_full@Base 0.72.2
 rados_aio_write_op_operate@Base 0.79
 rados_append@Base 0.72.2
 rados_blacklist_add@Base 0.93
 rados_break_lock@Base 0.72.2
 rados_buffer_free@Base 0.72.2
 rados_cct@Base 0.72.2
 rados_clone_range@Base 0.72.2
 rados_cluster_fsid@Base 0.72.2
 rados_cluster_stat@Base 0.72.2
 rados_conf_get@Base 0.72.2
 rados_conf_parse_argv@Base 0.72.2
 rados_conf_parse_argv_remainder@Base 0.72.2
 rados_conf_parse_env@Base 0.72.2
 rados_conf_read_file@Base 0.72.2
 rados_conf_set@Base 0.72.2
 rados_connect@Base 0.72.2
 rados_create2@Base 0.72.2
 rados_create@Base 0.72.2
 rados_create_read_op@Base 0.79
 rados_create_with_context@Base 0.72.2
 rados_create_write_op@Base 0.79
 rados_exec@Base 0.72.2
 rados_get_instance_id@Base 0.72.2
 rados_get_last_version@Base 0.72.2
 rados_getxattr@Base 0.72.2
 rados_getxattrs@Base 0.72.2
 rados_getxattrs_end@Base 0.72.2
 rados_getxattrs_next@Base 0.72.2
 rados_ioctx_cct@Base 0.72.2
 rados_ioctx_create2@Base 0.93
 rados_ioctx_create@Base 0.72.2
 rados_ioctx_destroy@Base 0.72.2
 rados_ioctx_get_cluster@Base 0.72.2
 rados_ioctx_get_id@Base 0.72.2
 rados_ioctx_get_pool_name@Base 0.72.2
 rados_ioctx_locator_set_key@Base 0.72.2
 rados_ioctx_pool_get_auid@Base 0.72.2
 rados_ioctx_pool_required_alignment@Base 0.79
 rados_ioctx_pool_requires_alignment@Base 0.79
 rados_ioctx_pool_set_auid@Base 0.72.2
 rados_ioctx_pool_stat@Base 0.72.2
 rados_ioctx_selfmanaged_snap_create@Base 0.72.2
 rados_ioctx_selfmanaged_snap_remove@Base 0.72.2
 rados_ioctx_selfmanaged_snap_rollback@Base 0.72.2
 rados_ioctx_selfmanaged_snap_set_write_ctx@Base 0.72.2
 rados_ioctx_set_namespace@Base 0.72.2
 rados_ioctx_snap_create@Base 0.72.2
 rados_ioctx_snap_get_name@Base 0.72.2
 rados_ioctx_snap_get_stamp@Base 0.72.2
 rados_ioctx_snap_list@Base 0.72.2
 rados_ioctx_snap_lookup@Base 0.72.2
 rados_ioctx_snap_remove@Base 0.72.2
 rados_ioctx_snap_rollback@Base 0.80~rc1
 rados_ioctx_snap_set_read@Base 0.72.2
 rados_list_lockers@Base 0.72.2
 rados_lock_exclusive@Base 0.72.2
 rados_lock_shared@Base 0.72.2
 rados_mon_command@Base 0.72.2
 rados_mon_command_target@Base 0.72.2
 rados_monitor_log@Base 0.72.2
 rados_nobjects_list_close@Base 0.93
 rados_nobjects_list_get_pg_hash_position@Base 0.93
 rados_nobjects_list_next@Base 0.93
 rados_nobjects_list_open@Base 0.93
 rados_nobjects_list_seek@Base 0.93
 rados_notify2@Base 0.93
 rados_notify@Base 0.72.2
 rados_notify_ack@Base 0.93
 rados_objects_list_close@Base 0.72.2
 rados_objects_list_get_pg_hash_position@Base 0.79
 rados_objects_list_next@Base 0.72.2
 rados_objects_list_open@Base 0.72.2
 rados_objects_list_seek@Base 0.79
 rados_omap_get_end@Base 0.79
 rados_omap_get_next@Base 0.79
 rados_osd_command@Base 0.72.2
 rados_pg_command@Base 0.72.2
 rados_ping_monitor@Base 0.72.2
 rados_pool_create@Base 0.72.2
 rados_pool_create_with_all@Base 0.72.2
 rados_pool_create_with_auid@Base 0.72.2
 rados_pool_create_with_crush_rule@Base 0.72.2
 rados_pool_delete@Base 0.72.2
 rados_pool_get_base_tier@Base 0.93
 rados_pool_list@Base 0.72.2
 rados_pool_lookup@Base 0.72.2
 rados_pool_reverse_lookup@Base 0.72.2
 rados_read@Base 0.72.2
 rados_read_op_assert_exists@Base 0.79
 rados_read_op_assert_version@Base 0.93
 rados_read_op_cmpxattr@Base 0.79
 rados_read_op_exec@Base 0.79
 rados_read_op_exec_user_buf@Base 0.79
 rados_read_op_getxattrs@Base 0.79
 rados_read_op_omap_cmp@Base 0.79
 rados_read_op_omap_get_keys@Base 0.79
 rados_read_op_omap_get_vals@Base 0.79
 rados_read_op_omap_get_vals_by_keys@Base 0.79
 rados_read_op_operate@Base 0.79
 rados_read_op_read@Base 0.79
 rados_read_op_set_flags@Base 0.79
 rados_read_op_stat@Base 0.79
 rados_release_read_op@Base 0.79
 rados_release_write_op@Base 0.79
 rados_remove@Base 0.72.2
 rados_rmxattr@Base 0.72.2
 rados_rollback@Base 0.72.2
 rados_set_alloc_hint@Base 0.79
 rados_setxattr@Base 0.72.2
 rados_shutdown@Base 0.72.2
 rados_stat@Base 0.72.2
 rados_tmap_get@Base 0.72.2
 rados_tmap_put@Base 0.72.2
 rados_tmap_update@Base 0.72.2
 rados_trunc@Base 0.72.2
 rados_unlock@Base 0.72.2
 rados_unwatch2@Base 0.93
 rados_unwatch@Base 0.72.2
 rados_version@Base 0.72.2
 rados_wait_for_latest_osdmap@Base 0.79
 rados_watch2@Base 0.93
 rados_watch@Base 0.72.2
 rados_watch_check@Base 0.93
 rados_watch_flush@Base 0.93
 rados_write@Base 0.72.2
 rados_write_full@Base 0.72.2
 rados_write_op_append@Base 0.79
 rados_write_op_assert_exists@Base 0.79
 rados_write_op_assert_version@Base 0.93
 rados_write_op_cmpxattr@Base 0.79
 rados_write_op_create@Base 0.79
 rados_write_op_exec@Base 0.79
 rados_write_op_omap_clear@Base 0.79
 rados_write_op_omap_cmp@Base 0.79
 rados_write_op_omap_rm_keys@Base 0.79
 rados_write_op_omap_set@Base 0.79
 rados_write_op_operate@Base 0.79
 rados_write_op_remove@Base 0.79
 rados_write_op_rmxattr@Base 0.79
 rados_write_op_set_alloc_hint@Base 0.79
 rados_write_op_set_flags@Base 0.79
 rados_write_op_setxattr@Base 0.79
 rados_write_op_truncate@Base 0.79
 rados_write_op_write@Base 0.79
 rados_write_op_write_full@Base 0.79
 rados_write_op_zero@Base 0.79
