librbd.so.1 librbd1 #MINVER#
 _ZN6librbd15ProgressContextD0Ev@Base 0.87
 _ZN6librbd15ProgressContextD1Ev@Base 0.87
 _ZN6librbd15ProgressContextD2Ev@Base 0.87
 _ZN6librbd3RBD13AioCompletion11is_completeEv@Base 0.87
 _ZN6librbd3RBD13AioCompletion16get_return_valueEv@Base 0.87
 _ZN6librbd3RBD13AioCompletion17wait_for_completeEv@Base 0.87
 _ZN6librbd3RBD13AioCompletion7releaseEv@Base 0.87
 _ZN6librbd3RBD13AioCompletionC1EPvPFvS2_S2_E@Base 0.87
 _ZN6librbd3RBD13AioCompletionC2EPvPFvS2_S2_E@Base 0.87
 _ZN6librbd3RBD14open_read_onlyERN8librados5IoCtxERNS_5ImageEPKcS7_@Base 0.87
 _ZN6librbd3RBD20remove_with_progressERN8librados5IoCtxEPKcRNS_15ProgressContextE@Base 0.87
 _ZN6librbd3RBD4listERN8librados5IoCtxERSt6vectorISsSaISsEE@Base 0.87
 _ZN6librbd3RBD4openERN8librados5IoCtxERNS_5ImageEPKc@Base 0.87
 _ZN6librbd3RBD4openERN8librados5IoCtxERNS_5ImageEPKcS7_@Base 0.87
 _ZN6librbd3RBD5cloneERN8librados5IoCtxEPKcS5_S3_S5_yPi@Base 0.87
 _ZN6librbd3RBD6clone2ERN8librados5IoCtxEPKcS5_S3_S5_yPiyi@Base 0.87
 _ZN6librbd3RBD6createERN8librados5IoCtxEPKcyPi@Base 0.87
 _ZN6librbd3RBD6removeERN8librados5IoCtxEPKc@Base 0.87
 _ZN6librbd3RBD6renameERN8librados5IoCtxEPKcS5_@Base 0.87
 _ZN6librbd3RBD7create2ERN8librados5IoCtxEPKcyyPi@Base 0.87
 _ZN6librbd3RBD7create3ERN8librados5IoCtxEPKcyyPiyy@Base 0.87
 _ZN6librbd3RBD7versionEPiS1_S1_@Base 0.87
 _ZN6librbd3RBDC1Ev@Base 0.87
 _ZN6librbd3RBDC2Ev@Base 0.87
 _ZN6librbd3RBDD1Ev@Base 0.87
 _ZN6librbd3RBDD2Ev@Base 0.87
 _ZN6librbd5Image10aio_write2EyjRN4ceph6buffer4listEPNS_3RBD13AioCompletionEi@Base 0.87
 _ZN6librbd5Image10break_lockERKSsS2_@Base 0.87
 _ZN6librbd5Image10old_formatEPh@Base 0.87
 _ZN6librbd5Image11aio_discardEyyPNS_3RBD13AioCompletionE@Base 0.87
 _ZN6librbd5Image11lock_sharedERKSsS2_@Base 0.87
 _ZN6librbd5Image11parent_infoEPSsS1_S1_@Base 0.87
 _ZN6librbd5Image11snap_createEPKc@Base 0.87
 _ZN6librbd5Image11snap_existsEPKc@Base 0.87
 _ZN6librbd5Image11snap_removeEPKc@Base 0.87
 _ZN6librbd5Image12diff_iterateEPKcyyPFiyjiPvES3_@Base 0.87
 _ZN6librbd5Image12list_lockersEPSt4listINS_8locker_tESaIS2_EEPbPSs@Base 0.87
 _ZN6librbd5Image12read_iterateEyjPFiyjPKcPvES3_@Base 0.87
 _ZN6librbd5Image12snap_protectEPKc@Base 0.87
 _ZN6librbd5Image13list_childrenEPSt3setISt4pairISsSsESt4lessIS3_ESaIS3_EE@Base 0.87
 _ZN6librbd5Image13read_iterate2EyyPFiyjPKcPvES3_@Base 0.87
 _ZN6librbd5Image13snap_rollbackEPKc@Base 0.87
 _ZN6librbd5Image14lock_exclusiveERKSs@Base 0.87
 _ZN6librbd5Image14snap_unprotectEPKc@Base 0.87
 _ZN6librbd5Image16invalidate_cacheEv@Base 0.87
 _ZN6librbd5Image17snap_is_protectedEPKcPb@Base 0.87
 _ZN6librbd5Image18copy_with_progressERN8librados5IoCtxEPKcRNS_15ProgressContextE@Base 0.87
 _ZN6librbd5Image19copy_with_progress2ERS0_RNS_15ProgressContextE@Base 0.87
 _ZN6librbd5Image20resize_with_progressEyRNS_15ProgressContextE@Base 0.87
 _ZN6librbd5Image21flatten_with_progressERNS_15ProgressContextE@Base 0.87
 _ZN6librbd5Image23is_exclusive_lock_ownerEPb@Base 0.87
 _ZN6librbd5Image27snap_rollback_with_progressEPKcRNS_15ProgressContextE@Base 0.87
 _ZN6librbd5Image4copyERN8librados5IoCtxEPKc@Base 0.87
 _ZN6librbd5Image4readEyjRN4ceph6buffer4listE@Base 0.87
 _ZN6librbd5Image4sizeEPy@Base 0.87
 _ZN6librbd5Image4statER16rbd_image_info_tj@Base 0.87
 _ZN6librbd5Image5copy2ERS0_@Base 0.87
 _ZN6librbd5Image5flushEv@Base 0.87
 _ZN6librbd5Image5read2EyjRN4ceph6buffer4listEi@Base 0.87
 _ZN6librbd5Image5writeEyjRN4ceph6buffer4listE@Base 0.87
 _ZN6librbd5Image6resizeEy@Base 0.87
 _ZN6librbd5Image6unlockERKSs@Base 0.87
 _ZN6librbd5Image6write2EyjRN4ceph6buffer4listEi@Base 0.87
 _ZN6librbd5Image7discardEyy@Base 0.87
 _ZN6librbd5Image7flattenEv@Base 0.87
 _ZN6librbd5Image7overlapEPy@Base 0.87
 _ZN6librbd5Image8aio_readEyjRN4ceph6buffer4listEPNS_3RBD13AioCompletionE@Base 0.87
 _ZN6librbd5Image8featuresEPy@Base 0.87
 _ZN6librbd5Image8snap_setEPKc@Base 0.87
 _ZN6librbd5Image9aio_flushEPNS_3RBD13AioCompletionE@Base 0.87
 _ZN6librbd5Image9aio_read2EyjRN4ceph6buffer4listEPNS_3RBD13AioCompletionEi@Base 0.87
 _ZN6librbd5Image9aio_writeEyjRN4ceph6buffer4listEPNS_3RBD13AioCompletionE@Base 0.87
 _ZN6librbd5Image9get_flagsEPy@Base 0.87
 _ZN6librbd5Image9snap_listERSt6vectorINS_11snap_info_tESaIS2_EE@Base 0.87
 _ZN6librbd5ImageC1Ev@Base 0.87
 _ZN6librbd5ImageC2Ev@Base 0.87
 _ZN6librbd5ImageD1Ev@Base 0.87
 _ZN6librbd5ImageD2Ev@Base 0.87
 _ZNK6librbd5Image15get_stripe_unitEv@Base 0.87
 _ZNK6librbd5Image16get_stripe_countEv@Base 0.87
 _ZNSt10_List_baseIN4ceph6buffer3ptrESaIS2_EE8_M_clearEv@Base 0.87
 _ZNSt8_Rb_treeISt4pairISsSsES1_St9_IdentityIS1_ESt4lessIS1_ESaIS1_EE8_M_eraseEPSt13_Rb_tree_nodeIS1_E@Base 0.87
 _ZNSt8_Rb_treeIySt4pairIKyS0_IN4ceph6buffer4listEyEESt10_Select1stIS6_ESt4lessIyESaIS6_EE8_M_eraseEPSt13_Rb_tree_nodeIS6_E@Base 0.87
 _ZTIN6librbd15ProgressContextE@Base 0.87
 _ZTSN6librbd15ProgressContextE@Base 0.87
 _ZTVN6librbd15ProgressContextE@Base 0.87
 ceph_ver__e4bfad3a3c51054df7e537a724c8d0bf9be972ff@Base 0.93
 rbd_aio_create_completion@Base 0.72.2
 rbd_aio_discard@Base 0.72.2
 rbd_aio_flush@Base 0.72.2
 rbd_aio_get_return_value@Base 0.72.2
 rbd_aio_is_complete@Base 0.72.2
 rbd_aio_read2@Base 0.93
 rbd_aio_read@Base 0.72.2
 rbd_aio_release@Base 0.72.2
 rbd_aio_wait_for_complete@Base 0.72.2
 rbd_aio_write2@Base 0.93
 rbd_aio_write@Base 0.72.2
 rbd_break_lock@Base 0.72.2
 rbd_clone2@Base 0.72.2
 rbd_clone@Base 0.72.2
 rbd_close@Base 0.72.2
 rbd_copy2@Base 0.72.2
 rbd_copy@Base 0.72.2
 rbd_copy_with_progress2@Base 0.72.2
 rbd_copy_with_progress@Base 0.72.2
 rbd_create2@Base 0.72.2
 rbd_create3@Base 0.72.2
 rbd_create@Base 0.72.2
 rbd_diff_iterate@Base 0.72.2
 rbd_discard@Base 0.72.2
 rbd_flatten@Base 0.72.2
 rbd_flush@Base 0.72.2
 rbd_get_features@Base 0.72.2
 rbd_get_flags@Base 0.93
 rbd_get_old_format@Base 0.72.2
 rbd_get_overlap@Base 0.72.2
 rbd_get_parent_info@Base 0.72.2
 rbd_get_size@Base 0.72.2
 rbd_get_stripe_count@Base 0.72.2
 rbd_get_stripe_unit@Base 0.72.2
 rbd_invalidate_cache@Base 0.80.5-2~
 rbd_is_exclusive_lock_owner@Base 0.93
 rbd_list@Base 0.72.2
 rbd_list_children@Base 0.72.2
 rbd_list_lockers@Base 0.72.2
 rbd_lock_exclusive@Base 0.72.2
 rbd_lock_shared@Base 0.72.2
 rbd_open@Base 0.72.2
 rbd_open_read_only@Base 0.72.2
 rbd_read2@Base 0.93
 rbd_read@Base 0.72.2
 rbd_read_iterate2@Base 0.72.2
 rbd_read_iterate@Base 0.72.2
 rbd_remove@Base 0.72.2
 rbd_remove_with_progress@Base 0.72.2
 rbd_rename@Base 0.72.2
 rbd_resize@Base 0.72.2
 rbd_resize_with_progress@Base 0.72.2
 rbd_snap_create@Base 0.72.2
 rbd_snap_is_protected@Base 0.72.2
 rbd_snap_list@Base 0.72.2
 rbd_snap_list_end@Base 0.72.2
 rbd_snap_protect@Base 0.72.2
 rbd_snap_remove@Base 0.72.2
 rbd_snap_rollback@Base 0.72.2
 rbd_snap_rollback_with_progress@Base 0.72.2
 rbd_snap_set@Base 0.72.2
 rbd_snap_unprotect@Base 0.72.2
 rbd_stat@Base 0.72.2
 rbd_unlock@Base 0.72.2
 rbd_version@Base 0.72.2
 rbd_write2@Base 0.93
 rbd_write@Base 0.72.2
